target datalayout = "e-m:e-p270:32:32-p271:32:32-p272:64:64-i64:64-i128:128-f80:128-n8:16:32:64-S128"
target triple = "x86_64-pc-linux-gnu"

; Function Attrs: nounwind uwtable
define void @vectors_scalar_mult(i32 noundef %0, ptr noundef %1, double noundef %2, ptr noundef %3) #0 {
  %5 = alloca i32, align 4
  %6 = alloca ptr, align 8
  %7 = alloca double, align 8
  %8 = alloca ptr, align 8
  %9 = alloca i32, align 4
  store i32 %0, ptr %5, align 4, !tbaa !8
  store ptr %1, ptr %6, align 8, !tbaa !10
  store double %2, ptr %7, align 8, !tbaa !12
  store ptr %3, ptr %8, align 8, !tbaa !10
  call void @llvm.lifetime.start.p0(i64 4, ptr %9) #8
  store i32 0, ptr %9, align 4, !tbaa !8
  br label %10

10:                                               ; preds = %26, %4
  %11 = load i32, ptr %9, align 4, !tbaa !8
  %12 = load i32, ptr %5, align 4, !tbaa !8
  %13 = icmp slt i32 %11, %12
  br i1 %13, label %14, label %29

14:                                               ; preds = %10
  %15 = load ptr, ptr %6, align 8, !tbaa !10
  %16 = load i32, ptr %9, align 4, !tbaa !8
  %17 = sext i32 %16 to i64
  %18 = getelementptr inbounds double, ptr %15, i64 %17
  %19 = load double, ptr %18, align 8, !tbaa !12
  %20 = load double, ptr %7, align 8, !tbaa !12
  %21 = fmul double %19, %20
  %22 = load ptr, ptr %8, align 8, !tbaa !10
  %23 = load i32, ptr %9, align 4, !tbaa !8
  %24 = sext i32 %23 to i64
  %25 = getelementptr inbounds double, ptr %22, i64 %24
  store double %21, ptr %25, align 8, !tbaa !12
  br label %26

26:                                               ; preds = %14
  %27 = load i32, ptr %9, align 4, !tbaa !8
  %28 = add nsw i32 %27, 1
  store i32 %28, ptr %9, align 4, !tbaa !8
  br label %10, !llvm.loop !32

29:                                               ; preds = %10
  call void @llvm.lifetime.end.p0(i64 4, ptr %9) #8
  ret void
}